target datalayout = "e-m:e-p270:32:32-p271:32:32-p272:64:64-i64:64-i128:128-f80:128-n8:16:32:64-S128"
target triple = "x86_64-pc-linux-gnu"

%struct._sapi_module_struct = type { ptr, ptr, ptr, ptr, ptr, ptr, ptr, ptr, ptr, ptr, ptr, ptr, ptr, ptr, ptr, ptr, ptr, ptr, ptr, ptr, ptr, ptr, ptr, ptr, i32, i32, ptr, ptr, ptr, ptr, ptr, ptr, i32, ptr, ptr, ptr }

@.str.17 = private unnamed_addr constant [22 x i8] c"PHP error_log message\00", align 1
@.str.18 = private unnamed_addr constant [49 x i8] c"TCP/IP option is not available for error logging\00", align 1
@.str.19 = private unnamed_addr constant [2 x i8] c"a\00", align 1
@sapi_module = external global %struct._sapi_module_struct, align 8

; Function Attrs: nounwind uwtable
define i32 @_php_error_log_ex(i32 noundef %0, ptr noundef %1, i64 noundef %2, ptr noundef %3, ptr noundef %4) #0 {
  %6 = alloca i32, align 4
  %7 = alloca i32, align 4
  %8 = alloca ptr, align 8
  %9 = alloca i64, align 8
  %10 = alloca ptr, align 8
  %11 = alloca ptr, align 8
  %12 = alloca ptr, align 8
  %13 = alloca i64, align 8
  store i32 %0, ptr %7, align 4
  store ptr %1, ptr %8, align 8
  store i64 %2, ptr %9, align 8
  store ptr %3, ptr %10, align 8
  store ptr %4, ptr %11, align 8
  store ptr null, ptr %12, align 8
  %14 = load i32, ptr %7, align 4
  switch i32 %14, label %50 [
    i32 1, label %15
    i32 2, label %23
    i32 3, label %24
    i32 4, label %42
  ]

15:                                               ; preds = %5
  %16 = load ptr, ptr %10, align 8
  %17 = load ptr, ptr %8, align 8
  %18 = load ptr, ptr %11, align 8
  %19 = call i32 @php_mail(ptr noundef %16, ptr noundef @.str.17, ptr noundef %17, ptr noundef %18, ptr noundef null)
  %20 = icmp ne i32 %19, 0
  br i1 %20, label %22, label %21

21:                                               ; preds = %15
  store i32 -1, ptr %6, align 4
  br label %53

22:                                               ; preds = %15
  br label %52

23:                                               ; preds = %5
  call void (ptr, ...) @zend_value_error(ptr noundef @.str.18)
  store i32 -1, ptr %6, align 4
  br label %53

24:                                               ; preds = %5
  %25 = load ptr, ptr %10, align 8
  %26 = call ptr @_php_stream_open_wrapper_ex(ptr noundef %25, ptr noundef @.str.19, i32 noundef 8, ptr noundef null, ptr noundef null)
  store ptr %26, ptr %12, align 8
  %27 = load ptr, ptr %12, align 8
  %28 = icmp ne ptr %27, null
  br i1 %28, label %30, label %29

29:                                               ; preds = %24
  store i32 -1, ptr %6, align 4
  br label %53

30:                                               ; preds = %24
  %31 = load ptr, ptr %12, align 8
  %32 = load ptr, ptr %8, align 8
  %33 = load i64, ptr %9, align 8
  %34 = call i64 @_php_stream_write(ptr noundef %31, ptr noundef %32, i64 noundef %33)
  store i64 %34, ptr %13, align 8
  %35 = load ptr, ptr %12, align 8
  %36 = call i32 @_php_stream_free(ptr noundef %35, i32 noundef 3)
  %37 = load i64, ptr %13, align 8
  %38 = load i64, ptr %9, align 8
  %39 = icmp ne i64 %37, %38
  br i1 %39, label %40, label %41

40:                                               ; preds = %30
  store i32 -1, ptr %6, align 4
  br label %53

41:                                               ; preds = %30
  br label %52

42:                                               ; preds = %5
  %43 = load ptr, ptr getelementptr inbounds (%struct._sapi_module_struct, ptr @sapi_module, i32 0, i32 17), align 8
  %44 = icmp ne ptr %43, null
  br i1 %44, label %45, label %48

45:                                               ; preds = %42
  %46 = load ptr, ptr getelementptr inbounds (%struct._sapi_module_struct, ptr @sapi_module, i32 0, i32 17), align 8
  %47 = load ptr, ptr %8, align 8
  call void %46(ptr noundef %47, i32 noundef -1)
  br label %49

48:                                               ; preds = %42
  store i32 -1, ptr %6, align 4
  br label %53

49:                                               ; preds = %45
  br label %52

50:                                               ; preds = %5
  %51 = load ptr, ptr %8, align 8
  call void @php_log_err_with_severity(ptr noundef %51, i32 noundef 5)
  br label %52

52:                                               ; preds = %50, %49, %41, %22
  store i32 0, ptr %6, align 4
  br label %53

53:                                               ; preds = %52, %48, %40, %29, %23, %21
  %54 = load i32, ptr %6, align 4
  ret i32 %54
}