; Function Attrs: nounwind uwtable
define noundef i32 @_php_error_log_ex(i32 noundef %0, ptr noundef %1, i64 noundef %2, ptr noundef %3, ptr noundef %4) local_unnamed_addr #0 {
  switch i32 %0, label %17 [
    i32 1, label %6
    i32 2, label %8
    i32 3, label %9
    i32 4, label %14
  ]

6:                                                ; preds = %5
  %7 = tail call i32 @php_mail(ptr noundef %3, ptr noundef nonnull @.str.17, ptr noundef %1, ptr noundef %4, ptr noundef null) #18
  %.not18 = icmp eq i32 %7, 0
  br i1 %.not18, label %19, label %18

8:                                                ; preds = %5
  tail call void (ptr, ...) @zend_value_error(ptr noundef nonnull @.str.18) #18
  br label %19

9:                                                ; preds = %5
  %10 = tail call ptr @_php_stream_open_wrapper_ex(ptr noundef %3, ptr noundef nonnull @.str.19, i32 noundef 8, ptr noundef null, ptr noundef null) #18
  %.not16 = icmp eq ptr %10, null
  br i1 %.not16, label %19, label %11

11:                                               ; preds = %9
  %12 = tail call i64 @_php_stream_write(ptr noundef nonnull %10, ptr noundef %1, i64 noundef %2) #18
  %13 = tail call i32 @_php_stream_free(ptr noundef nonnull %10, i32 noundef 3) #18
  %.not17 = icmp eq i64 %12, %2
  br i1 %.not17, label %18, label %19

14:                                               ; preds = %5
  %15 = load ptr, ptr getelementptr inbounds (%struct._sapi_module_struct, ptr @sapi_module, i64 0, i32 17), align 8
  %.not = icmp eq ptr %15, null
  br i1 %.not, label %19, label %16

16:                                               ; preds = %14
  tail call void %15(ptr noundef %1, i32 noundef -1) #18
  br label %18

17:                                               ; preds = %5
  tail call void @php_log_err_with_severity(ptr noundef %1, i32 noundef 5) #18
  br label %18

18:                                               ; preds = %11, %6, %17, %16
  br label %19

19:                                               ; preds = %14, %11, %9, %6, %18, %8
  %.0 = phi i32 [ 0, %18 ], [ -1, %8 ], [ -1, %6 ], [ -1, %9 ], [ -1, %11 ], [ -1, %14 ]
  ret i32 %.0
}